; Function Attrs: nounwind uwtable
define void @Ptngc_comp_conv_from_mtf_partial3(ptr noundef readonly captures(none) %0, i32 noundef %1, ptr noundef captures(none) %2) local_unnamed_addr #0 {
  %4 = alloca [256 x i32], align 16
  %5 = alloca [256 x i32], align 16
  %6 = sext i32 %1 to i64
  %7 = tail call ptr @Ptngc_warnmalloc_x(i64 noundef %6, ptr noundef nonnull @.str, i32 noundef 185) #5
  %8 = shl nsw i64 %6, 2
  tail call void @llvm.memset.p0.i64(ptr align 4 %2, i8 0, i64 %8, i1 false)
  %9 = getelementptr inbounds nuw i8, ptr %4, i64 1020
  %10 = icmp sgt i32 %1, 0
  %wide.trip.count.i = zext i32 %1 to i64
  br i1 %10, label %.split.us.split.us, label %.split.split

.split.us.split.us:                               ; preds = %3, %._crit_edge.us.us
  %indvars.iv42 = phi i64 [ %indvars.iv.next43, %._crit_edge.us.us ], [ 0, %3 ]
  %11 = mul nuw nsw i64 %indvars.iv42, %wide.trip.count.i
  call void @llvm.lifetime.start.p0(i64 1024, ptr nonnull %4) #5
  call void @llvm.lifetime.start.p0(i64 1024, ptr nonnull %5) #5
  br label %12

12:                                               ; preds = %12, %.split.us.split.us
  %indvars.iv.i.us.us = phi i64 [ 0, %.split.us.split.us ], [ %indvars.iv.next.i.us.us, %12 ]
  %13 = getelementptr inbounds nuw [256 x i32], ptr %5, i64 0, i64 %indvars.iv.i.us.us
  %14 = trunc nuw nsw i64 %indvars.iv.i.us.us to i32
  store i32 %14, ptr %13, align 4, !tbaa !3
  %indvars.iv.next.i.us.us = add nuw nsw i64 %indvars.iv.i.us.us, 1
  %exitcond.not.i.us.us = icmp eq i64 %indvars.iv.next.i.us.us, 256
  br i1 %exitcond.not.i.us.us, label %.preheader.i.us.us, label %12, !llvm.loop !18

.preheader.i.us.us:                               ; preds = %12, %.preheader.i.us.us
  %indvars.iv44.i.us.us = phi i64 [ %indvars.iv.next45.i.us.us, %.preheader.i.us.us ], [ 0, %12 ]
  %indvars.iv.next45.i.us.us = add nuw nsw i64 %indvars.iv44.i.us.us, 1
  %15 = getelementptr inbounds nuw [256 x i32], ptr %4, i64 0, i64 %indvars.iv44.i.us.us
  %16 = trunc nuw nsw i64 %indvars.iv.next45.i.us.us to i32
  store i32 %16, ptr %15, align 4, !tbaa !3
  %exitcond47.not.i.us.us = icmp eq i64 %indvars.iv.next45.i.us.us, 255
  br i1 %exitcond47.not.i.us.us, label %.lr.ph40.preheader.i.us.us, label %.preheader.i.us.us, !llvm.loop !19

.lr.ph40.preheader.i.us.us:                       ; preds = %.preheader.i.us.us
  %17 = getelementptr inbounds nuw i8, ptr %0, i64 %11
  store i32 -1, ptr %9, align 4, !tbaa !3
  br label %.lr.ph40.i.us.us

.lr.ph40.i.us.us:                                 ; preds = %39, %.lr.ph40.preheader.i.us.us
  %indvars.iv49.i.us.us = phi i64 [ 0, %.lr.ph40.preheader.i.us.us ], [ %indvars.iv.next50.i.us.us, %39 ]
  %.03037.i.us.us = phi i32 [ 0, %.lr.ph40.preheader.i.us.us ], [ %.131.i.us.us, %39 ]
  %18 = getelementptr inbounds nuw i8, ptr %17, i64 %indvars.iv49.i.us.us
  %19 = load i8, ptr %18, align 1, !tbaa !10
  %20 = zext i8 %19 to i32
  %.not42.i.us.us = icmp eq i8 %19, 0
  br i1 %.not42.i.us.us, label %._crit_edge.thread.i.us.us, label %.lr.ph.i.us.us

.lr.ph.i.us.us:                                   ; preds = %.lr.ph40.i.us.us, %.lr.ph.i.us.us
  %.035.i.us.us = phi i32 [ %24, %.lr.ph.i.us.us ], [ 0, %.lr.ph40.i.us.us ]
  %.02834.i.us.us = phi i32 [ %23, %.lr.ph.i.us.us ], [ %.03037.i.us.us, %.lr.ph40.i.us.us ]
  %21 = sext i32 %.02834.i.us.us to i64
  %22 = getelementptr inbounds [256 x i32], ptr %4, i64 0, i64 %21
  %23 = load i32, ptr %22, align 4, !tbaa !3
  %24 = add nuw nsw i32 %.035.i.us.us, 1
  %exitcond48.not.i.us.us = icmp eq i32 %24, %20
  br i1 %exitcond48.not.i.us.us, label %._crit_edge.i.us.us, label %.lr.ph.i.us.us, !llvm.loop !20

._crit_edge.i.us.us:                              ; preds = %.lr.ph.i.us.us
  %25 = sext i32 %23 to i64
  %26 = getelementptr inbounds [256 x i32], ptr %5, i64 0, i64 %25
  %27 = load i32, ptr %26, align 4, !tbaa !3
  %28 = trunc i32 %27 to i8
  %29 = getelementptr inbounds nuw i8, ptr %7, i64 %indvars.iv49.i.us.us
  store i8 %28, ptr %29, align 1, !tbaa !10
  %.not.i.us.us = icmp eq i32 %.02834.i.us.us, -1
  br i1 %.not.i.us.us, label %39, label %30

30:                                               ; preds = %._crit_edge.i.us.us
  %31 = getelementptr inbounds [256 x i32], ptr %4, i64 0, i64 %21
  %32 = getelementptr inbounds [256 x i32], ptr %4, i64 0, i64 %25
  %33 = load i32, ptr %32, align 4, !tbaa !3
  store i32 %33, ptr %31, align 4, !tbaa !3
  store i32 %.03037.i.us.us, ptr %32, align 4, !tbaa !3
  br label %39

._crit_edge.thread.i.us.us:                       ; preds = %.lr.ph40.i.us.us
  %34 = sext i32 %.03037.i.us.us to i64
  %35 = getelementptr inbounds [256 x i32], ptr %5, i64 0, i64 %34
  %36 = load i32, ptr %35, align 4, !tbaa !3
  %37 = trunc i32 %36 to i8
  %38 = getelementptr inbounds nuw i8, ptr %7, i64 %indvars.iv49.i.us.us
  store i8 %37, ptr %38, align 1, !tbaa !10
  br label %39

39:                                               ; preds = %._crit_edge.thread.i.us.us, %30, %._crit_edge.i.us.us
  %.131.i.us.us = phi i32 [ %23, %30 ], [ %.03037.i.us.us, %._crit_edge.i.us.us ], [ %.03037.i.us.us, %._crit_edge.thread.i.us.us ]
  %indvars.iv.next50.i.us.us = add nuw nsw i64 %indvars.iv49.i.us.us, 1
  %exitcond52.not.i.us.us = icmp eq i64 %indvars.iv.next50.i.us.us, %wide.trip.count.i
  br i1 %exitcond52.not.i.us.us, label %comp_conv_from_mtf_byte.exit.loopexit.us.us, label %.lr.ph40.i.us.us, !llvm.loop !21

40:                                               ; preds = %comp_conv_from_mtf_byte.exit.loopexit.us.us, %40
  %indvars.iv = phi i64 [ 0, %comp_conv_from_mtf_byte.exit.loopexit.us.us ], [ %indvars.iv.next, %40 ]
  %41 = getelementptr inbounds nuw i8, ptr %7, i64 %indvars.iv
  %42 = load i8, ptr %41, align 1, !tbaa !10
  %43 = zext i8 %42 to i32
  %44 = shl nuw nsw i32 %43, %48
  %45 = getelementptr inbounds nuw i32, ptr %2, i64 %indvars.iv
  %46 = load i32, ptr %45, align 4, !tbaa !3
  %47 = or i32 %44, %46
  store i32 %47, ptr %45, align 4, !tbaa !3
  %indvars.iv.next = add nuw nsw i64 %indvars.iv, 1
  %exitcond41.not = icmp eq i64 %indvars.iv.next, %wide.trip.count.i
  br i1 %exitcond41.not, label %._crit_edge.us.us, label %40, !llvm.loop !25

comp_conv_from_mtf_byte.exit.loopexit.us.us:      ; preds = %39
  call void @llvm.lifetime.end.p0(i64 1024, ptr nonnull %5) #5
  call void @llvm.lifetime.end.p0(i64 1024, ptr nonnull %4) #5
  %indvars.iv42.tr = trunc i64 %indvars.iv42 to i32
  %48 = shl i32 %indvars.iv42.tr, 3
  br label %40

._crit_edge.us.us:                                ; preds = %40
  %indvars.iv.next43 = add nuw nsw i64 %indvars.iv42, 1
  %exitcond45.not = icmp eq i64 %indvars.iv.next43, 3
  br i1 %exitcond45.not, label %.split24.us, label %.split.us.split.us, !llvm.loop !26

.split.split:                                     ; preds = %3, %comp_conv_from_mtf_byte.exit
  %.022 = phi i32 [ %54, %comp_conv_from_mtf_byte.exit ], [ 0, %3 ]
  call void @llvm.lifetime.start.p0(i64 1024, ptr nonnull %4) #5
  call void @llvm.lifetime.start.p0(i64 1024, ptr nonnull %5) #5
  br label %49

49:                                               ; preds = %49, %.split.split
  %indvars.iv.i = phi i64 [ 0, %.split.split ], [ %indvars.iv.next.i, %49 ]
  %50 = getelementptr inbounds nuw [256 x i32], ptr %5, i64 0, i64 %indvars.iv.i
  %51 = trunc nuw nsw i64 %indvars.iv.i to i32
  store i32 %51, ptr %50, align 4, !tbaa !3
  %indvars.iv.next.i = add nuw nsw i64 %indvars.iv.i, 1
  %exitcond.not.i = icmp eq i64 %indvars.iv.next.i, 256
  br i1 %exitcond.not.i, label %.preheader.i, label %49, !llvm.loop !18

.preheader.i:                                     ; preds = %49, %.preheader.i
  %indvars.iv44.i = phi i64 [ %indvars.iv.next45.i, %.preheader.i ], [ 0, %49 ]
  %indvars.iv.next45.i = add nuw nsw i64 %indvars.iv44.i, 1
  %52 = getelementptr inbounds nuw [256 x i32], ptr %4, i64 0, i64 %indvars.iv44.i
  %53 = trunc nuw nsw i64 %indvars.iv.next45.i to i32
  store i32 %53, ptr %52, align 4, !tbaa !3
  %exitcond47.not.i = icmp eq i64 %indvars.iv.next45.i, 255
  br i1 %exitcond47.not.i, label %comp_conv_from_mtf_byte.exit, label %.preheader.i, !llvm.loop !19

comp_conv_from_mtf_byte.exit:                     ; preds = %.preheader.i
  call void @llvm.lifetime.end.p0(i64 1024, ptr nonnull %5) #5
  call void @llvm.lifetime.end.p0(i64 1024, ptr nonnull %4) #5
  %54 = add nuw nsw i32 %.022, 1
  %exitcond.not = icmp eq i32 %54, 3
  br i1 %exitcond.not, label %.split24.us, label %.split.split, !llvm.loop !26

.split24.us:                                      ; preds = %comp_conv_from_mtf_byte.exit, %._crit_edge.us.us
  tail call void @free(ptr noundef %7) #5
  ret void
}